; ModuleID = '53/583.c'
source_filename = "53/583.c"
target datalayout = "e-m:e-p270:32:32-p271:32:32-p272:64:64-i64:64-f80:128-n8:16:32:64-S128"
target triple = "x86_64-pc-linux-gnu"

@.str = private unnamed_addr constant [3 x i8] c"%d\00", align 1
@.str.1 = private unnamed_addr constant [4 x i8] c"%d,\00", align 1

; Function Attrs: noinline nounwind uwtable
define dso_local i32 @main() #0 {
  %1 = alloca i32, align 4
  %2 = alloca i32, align 4
  %3 = alloca i8*, align 8
  %4 = alloca i64, align 8
  %5 = alloca i32*, align 8
  %6 = alloca i32, align 4
  %7 = alloca i64, align 8
  %8 = alloca i32*, align 8
  %9 = alloca i32, align 4
  %10 = alloca i32, align 4
  store i32 0, i32* %1, align 4
  %11 = call i32 (i8*, ...) @__isoc99_scanf(i8* getelementptr inbounds ([3 x i8], [3 x i8]* @.str, i64 0, i64 0), i32* %2)
  %12 = load i32, i32* %2, align 4
  %13 = zext i32 %12 to i64
  %14 = call i8* @llvm.stacksave()
  store i8* %14, i8** %3, align 8
  %15 = alloca i32, i64 %13, align 16
  store i64 %13, i64* %4, align 8
  store i32* %15, i32** %5, align 8
  %16 = load i32, i32* %2, align 4
  %17 = zext i32 %16 to i64
  %18 = alloca i32, i64 %17, align 16
  store i64 %17, i64* %7, align 8
  store i32* %18, i32** %8, align 8
  store i32 1, i32* %10, align 4
  store i32 0, i32* %6, align 4
  br label %19

19:                                               ; preds = %29, %0
  %20 = load i32, i32* %6, align 4
  %21 = load i32, i32* %2, align 4
  %22 = icmp slt i32 %20, %21
  br i1 %22, label %23, label %32

23:                                               ; preds = %19
  %24 = load i32*, i32** %5, align 8
  %25 = load i32, i32* %6, align 4
  %26 = sext i32 %25 to i64
  %27 = getelementptr inbounds i32, i32* %24, i64 %26
  %28 = call i32 (i8*, ...) @__isoc99_scanf(i8* getelementptr inbounds ([3 x i8], [3 x i8]* @.str, i64 0, i64 0), i32* %27)
  br label %29

29:                                               ; preds = %23
  %30 = load i32, i32* %6, align 4
  %31 = add nsw i32 %30, 1
  store i32 %31, i32* %6, align 4
  br label %19

32:                                               ; preds = %19
  %33 = load i32*, i32** %5, align 8
  %34 = load i32, i32* %33, align 4
  %35 = load i32*, i32** %8, align 8
  store i32 %34, i32* %35, align 4
  store i32 1, i32* %6, align 4
  br label %36

36:                                               ; preds = %79, %32
  %37 = load i32, i32* %6, align 4
  %38 = load i32, i32* %2, align 4
  %39 = icmp slt i32 %37, %38
  br i1 %39, label %40, label %82

40:                                               ; preds = %36
  store i32 0, i32* %9, align 4
  br label %41

41:                                               ; preds = %59, %40
  %42 = load i32, i32* %9, align 4
  %43 = load i32, i32* %10, align 4
  %44 = icmp slt i32 %42, %43
  br i1 %44, label %45, label %62

45:                                               ; preds = %41
  %46 = load i32*, i32** %5, align 8
  %47 = load i32, i32* %6, align 4
  %48 = sext i32 %47 to i64
  %49 = getelementptr inbounds i32, i32* %46, i64 %48
  %50 = load i32, i32* %49, align 4
  %51 = load i32*, i32** %8, align 8
  %52 = load i32, i32* %9, align 4
  %53 = sext i32 %52 to i64
  %54 = getelementptr inbounds i32, i32* %51, i64 %53
  %55 = load i32, i32* %54, align 4
  %56 = icmp eq i32 %50, %55
  br i1 %56, label %57, label %58

57:                                               ; preds = %45
  br label %62

58:                                               ; preds = %45
  br label %59

59:                                               ; preds = %58
  %60 = load i32, i32* %9, align 4
  %61 = add nsw i32 %60, 1
  store i32 %61, i32* %9, align 4
  br label %41

62:                                               ; preds = %57, %41
  %63 = load i32, i32* %9, align 4
  %64 = load i32, i32* %10, align 4
  %65 = icmp eq i32 %63, %64
  br i1 %65, label %66, label %78

66:                                               ; preds = %62
  %67 = load i32*, i32** %5, align 8
  %68 = load i32, i32* %6, align 4
  %69 = sext i32 %68 to i64
  %70 = getelementptr inbounds i32, i32* %67, i64 %69
  %71 = load i32, i32* %70, align 4
  %72 = load i32*, i32** %8, align 8
  %73 = load i32, i32* %10, align 4
  %74 = sext i32 %73 to i64
  %75 = getelementptr inbounds i32, i32* %72, i64 %74
  store i32 %71, i32* %75, align 4
  %76 = load i32, i32* %10, align 4
  %77 = add nsw i32 %76, 1
  store i32 %77, i32* %10, align 4
  br label %78

78:                                               ; preds = %66, %62
  br label %79

79:                                               ; preds = %78
  %80 = load i32, i32* %6, align 4
  %81 = add nsw i32 %80, 1
  store i32 %81, i32* %6, align 4
  br label %36

82:                                               ; preds = %36
  store i32 0, i32* %6, align 4
  br label %83

83:                                               ; preds = %95, %82
  %84 = load i32, i32* %6, align 4
  %85 = load i32, i32* %10, align 4
  %86 = sub nsw i32 %85, 1
  %87 = icmp slt i32 %84, %86
  br i1 %87, label %88, label %98

88:                                               ; preds = %83
  %89 = load i32*, i32** %8, align 8
  %90 = load i32, i32* %6, align 4
  %91 = sext i32 %90 to i64
  %92 = getelementptr inbounds i32, i32* %89, i64 %91
  %93 = load i32, i32* %92, align 4
  %94 = call i32 (i8*, ...) @printf(i8* getelementptr inbounds ([4 x i8], [4 x i8]* @.str.1, i64 0, i64 0), i32 %93)
  br label %95

95:                                               ; preds = %88
  %96 = load i32, i32* %6, align 4
  %97 = add nsw i32 %96, 1
  store i32 %97, i32* %6, align 4
  br label %83

98:                                               ; preds = %83
  %99 = load i32*, i32** %8, align 8
  %100 = load i32, i32* %10, align 4
  %101 = sext i32 %100 to i64
  %102 = getelementptr inbounds i32, i32* %99, i64 %101
  %103 = getelementptr inbounds i32, i32* %102, i64 -1
  %104 = load i32, i32* %103, align 4
  %105 = call i32 (i8*, ...) @printf(i8* getelementptr inbounds ([3 x i8], [3 x i8]* @.str, i64 0, i64 0), i32 %104)
  store i32 0, i32* %1, align 4
  %106 = load i8*, i8** %3, align 8
  call void @llvm.stackrestore(i8* %106)
  %107 = load i32, i32* %1, align 4
  ret i32 %107
}

declare dso_local i32 @__isoc99_scanf(i8*, ...) #1

; Function Attrs: nounwind
declare i8* @llvm.stacksave() #2

declare dso_local i32 @printf(i8*, ...) #1

; Function Attrs: nounwind
declare void @llvm.stackrestore(i8*) #2


!llvm.module.flags = !{!0}
!llvm.ident = !{!1}

!0 = !{i32 1, !"wchar_size", i32 4}
!1 = !{!"clang version 10.0.0-4ubuntu1 "}
